target datalayout = "e-m:e-p270:32:32-p271:32:32-p272:64:64-i64:64-i128:128-f80:128-n8:16:32:64-S128"
target triple = "x86_64-pc-linux-gnu"

%struct.rocc_insn_t = type { i32 }
%"class.std::vector" = type { %"struct.std::_Vector_base" }
%"struct.std::_Vector_base" = type { %"struct.std::_Vector_base<insn_desc_t, std::allocator<insn_desc_t>>::_Vector_impl" }
%"struct.std::_Vector_base<insn_desc_t, std::allocator<insn_desc_t>>::_Vector_impl" = type { %"struct.std::_Vector_base<insn_desc_t, std::allocator<insn_desc_t>>::_Vector_impl_data" }
%"struct.std::_Vector_base<insn_desc_t, std::allocator<insn_desc_t>>::_Vector_impl_data" = type { ptr, ptr, ptr }
%class.insn_t = type { i64 }
%union.rocc_insn_union_t = type { %class.insn_t }
%struct.float128_t = type { [2 x i64] }
%struct.state_t = type <{ i64, %class.regfile_t, %class.regfile_t.21, %"class.std::unordered_map.22", i64, i64, i8, i8, i8, i8, [4 x i8], %"class.std::shared_ptr", %"class.std::shared_ptr.42", %"class.std::shared_ptr.45", %"class.std::shared_ptr.45", %"class.std::shared_ptr.45", %"class.std::shared_ptr.45", %"class.std::shared_ptr.45", %"class.std::shared_ptr.48", %"class.std::shared_ptr.48", %"class.std::shared_ptr.51", %"class.std::shared_ptr.54", %"class.std::shared_ptr.45", %"class.std::shared_ptr.45", %"class.std::shared_ptr.45", %"class.std::shared_ptr.45", [29 x %"class.std::shared_ptr.45"], %"class.std::shared_ptr.45", %"class.std::shared_ptr.45", %"class.std::shared_ptr.45", %"class.std::shared_ptr.45", %"class.std::shared_ptr.45", %"class.std::shared_ptr.45", %"class.std::shared_ptr.57", %"class.std::shared_ptr.45", %"class.std::shared_ptr.45", %"class.std::shared_ptr.45", %"class.std::shared_ptr.45", %"class.std::shared_ptr.45", %"class.std::shared_ptr.60", %"class.std::shared_ptr.45", %"class.std::shared_ptr.45", %"class.std::shared_ptr.45", %"class.std::shared_ptr.45", %"class.std::shared_ptr.45", %"class.std::shared_ptr.45", %"class.std::shared_ptr.45", %"class.std::shared_ptr.45", %"class.std::shared_ptr.45", %"class.std::shared_ptr.63", %"class.std::shared_ptr.66", %"class.std::shared_ptr.69", %"class.std::shared_ptr.45", %"class.std::shared_ptr.45", %"class.std::shared_ptr.45", %"class.std::shared_ptr.45", %"class.std::shared_ptr.45", %"class.std::shared_ptr.45", %"class.std::shared_ptr.72", %"class.std::shared_ptr.45", %"class.std::shared_ptr.45", %"class.std::shared_ptr.45", %"class.std::shared_ptr.45", %"class.std::shared_ptr.45", %"class.std::shared_ptr.45", i8, [7 x i8], %"class.std::shared_ptr.75", [64 x %"class.std::shared_ptr.78"], %"class.std::shared_ptr.81", %"class.std::shared_ptr.81", %"class.std::shared_ptr.45", %"class.std::shared_ptr.45", %"class.std::shared_ptr.45", [4 x %"class.std::shared_ptr.45"], [4 x %"class.std::shared_ptr.45"], [4 x %"class.std::shared_ptr.45"], %"class.std::shared_ptr.45", %"class.std::shared_ptr.84", %"class.std::shared_ptr.45", %"class.std::shared_ptr.45", %"class.std::shared_ptr.45", %"class.std::shared_ptr.45", i8, [3 x i8], i32, %"class.std::map", %"class.std::vector.92", %"class.std::vector.92", i64, i32, i32, i32, i8, [3 x i8] }>
%class.regfile_t = type { [32 x i64] }
%class.regfile_t.21 = type { [32 x %struct.float128_t] }
%"class.std::unordered_map.22" = type { %"class.std::_Hashtable.23" }
%"class.std::_Hashtable.23" = type { ptr, i64, %"struct.std::__detail::_Hash_node_base", i64, %"struct.std::__detail::_Prime_rehash_policy", ptr }
%"struct.std::__detail::_Hash_node_base" = type { ptr }
%"struct.std::__detail::_Prime_rehash_policy" = type { float, i64 }
%"class.std::shared_ptr" = type { %"class.std::__shared_ptr" }
%"class.std::__shared_ptr" = type { ptr, %"class.std::__shared_count" }
%"class.std::__shared_count" = type { ptr }
%"class.std::shared_ptr.42" = type { %"class.std::__shared_ptr.43" }
%"class.std::__shared_ptr.43" = type { ptr, %"class.std::__shared_count" }
%"class.std::shared_ptr.48" = type { %"class.std::__shared_ptr.49" }
%"class.std::__shared_ptr.49" = type { ptr, %"class.std::__shared_count" }
%"class.std::shared_ptr.51" = type { %"class.std::__shared_ptr.52" }
%"class.std::__shared_ptr.52" = type { ptr, %"class.std::__shared_count" }
%"class.std::shared_ptr.54" = type { %"class.std::__shared_ptr.55" }
%"class.std::__shared_ptr.55" = type { ptr, %"class.std::__shared_count" }
%"class.std::shared_ptr.57" = type { %"class.std::__shared_ptr.58" }
%"class.std::__shared_ptr.58" = type { ptr, %"class.std::__shared_count" }
%"class.std::shared_ptr.60" = type { %"class.std::__shared_ptr.61" }
%"class.std::__shared_ptr.61" = type { ptr, %"class.std::__shared_count" }
%"class.std::shared_ptr.63" = type { %"class.std::__shared_ptr.64" }
%"class.std::__shared_ptr.64" = type { ptr, %"class.std::__shared_count" }
%"class.std::shared_ptr.66" = type { %"class.std::__shared_ptr.67" }
%"class.std::__shared_ptr.67" = type { ptr, %"class.std::__shared_count" }
%"class.std::shared_ptr.69" = type { %"class.std::__shared_ptr.70" }
%"class.std::__shared_ptr.70" = type { ptr, %"class.std::__shared_count" }
%"class.std::shared_ptr.72" = type { %"class.std::__shared_ptr.73" }
%"class.std::__shared_ptr.73" = type { ptr, %"class.std::__shared_count" }
%"class.std::shared_ptr.75" = type { %"class.std::__shared_ptr.76" }
%"class.std::__shared_ptr.76" = type { ptr, %"class.std::__shared_count" }
%"class.std::shared_ptr.78" = type { %"class.std::__shared_ptr.79" }
%"class.std::__shared_ptr.79" = type { ptr, %"class.std::__shared_count" }
%"class.std::shared_ptr.81" = type { %"class.std::__shared_ptr.82" }
%"class.std::__shared_ptr.82" = type { ptr, %"class.std::__shared_count" }
%"class.std::shared_ptr.84" = type { %"class.std::__shared_ptr.85" }
%"class.std::__shared_ptr.85" = type { ptr, %"class.std::__shared_count" }
%"class.std::shared_ptr.45" = type { %"class.std::__shared_ptr.46" }
%"class.std::__shared_ptr.46" = type { ptr, %"class.std::__shared_count" }
%"class.std::map" = type { %"class.std::_Rb_tree.87" }
%"class.std::_Rb_tree.87" = type { %"struct.std::_Rb_tree<unsigned long, std::pair<const unsigned long, float128_t>, std::_Select1st<std::pair<const unsigned long, float128_t>>, std::less<unsigned long>>::_Rb_tree_impl" }
%"struct.std::_Rb_tree<unsigned long, std::pair<const unsigned long, float128_t>, std::_Select1st<std::pair<const unsigned long, float128_t>>, std::less<unsigned long>>::_Rb_tree_impl" = type { [8 x i8], %"struct.std::_Rb_tree_header" }
%"struct.std::_Rb_tree_header" = type { %"struct.std::_Rb_tree_node_base", i64 }
%"struct.std::_Rb_tree_node_base" = type { i32, ptr, ptr, ptr }
%"class.std::vector.92" = type { %"struct.std::_Vector_base.93" }
%"struct.std::_Vector_base.93" = type { %"struct.std::_Vector_base<std::tuple<unsigned long, unsigned long, unsigned char>, std::allocator<std::tuple<unsigned long, unsigned long, unsigned char>>>::_Vector_impl" }
%"struct.std::_Vector_base<std::tuple<unsigned long, unsigned long, unsigned char>, std::allocator<std::tuple<unsigned long, unsigned long, unsigned char>>>::_Vector_impl" = type { %"struct.std::_Vector_base<std::tuple<unsigned long, unsigned long, unsigned char>, std::allocator<std::tuple<unsigned long, unsigned long, unsigned char>>>::_Vector_impl_data" }
%"struct.std::_Vector_base<std::tuple<unsigned long, unsigned long, unsigned char>, std::allocator<std::tuple<unsigned long, unsigned long, unsigned char>>>::_Vector_impl_data" = type { ptr, ptr, ptr }
%class.processor_t = type { %class.abstract_device_t, i8, i32, %class.isa_parser_t, ptr, ptr, ptr, %"class.std::unordered_map", ptr, %struct.state_t, i32, i32, i8, i8, ptr, %"class.std::basic_ostream", i8, i8, i8, %"class.std::vector.97", %"class.std::bitset", %"class.std::bitset", %"class.std::bitset", %"class.std::vector", %"class.std::vector", %"class.std::unordered_map.101", [4095 x %class.opcode_cache_entry_t], i64, i64, i64, %class.entropy_source, i64, i64, %class.vectorUnit_t, %"class.triggers::module_t" }
%class.abstract_device_t = type { ptr }
%class.isa_parser_t = type { i32, i64, i64, i64, i8, i8, %"class.std::bitset", %"class.std::__cxx11::basic_string", %"class.std::set" }
%"class.std::__cxx11::basic_string" = type { %"struct.std::__cxx11::basic_string<char>::_Alloc_hider", i64, %union.anon }
%"struct.std::__cxx11::basic_string<char>::_Alloc_hider" = type { ptr }
%union.anon = type { i64, [8 x i8] }
%"class.std::set" = type { %"class.std::_Rb_tree" }
%"class.std::_Rb_tree" = type { %"struct.std::_Rb_tree<std::__cxx11::basic_string<char>, std::__cxx11::basic_string<char>, std::_Identity<std::__cxx11::basic_string<char>>, std::less<std::__cxx11::basic_string<char>>>::_Rb_tree_impl" }
%"struct.std::_Rb_tree<std::__cxx11::basic_string<char>, std::__cxx11::basic_string<char>, std::_Identity<std::__cxx11::basic_string<char>>, std::less<std::__cxx11::basic_string<char>>>::_Rb_tree_impl" = type { [8 x i8], %"struct.std::_Rb_tree_header" }
%"class.std::unordered_map" = type { %"class.std::_Hashtable" }
%"class.std::_Hashtable" = type { ptr, i64, %"struct.std::__detail::_Hash_node_base", i64, %"struct.std::__detail::_Prime_rehash_policy", ptr }
%"class.std::basic_ostream" = type { ptr, %"class.std::basic_ios" }
%"class.std::basic_ios" = type { %"class.std::ios_base", ptr, i8, i8, ptr, ptr, ptr, ptr }
%"class.std::ios_base" = type { ptr, i64, i64, i32, i32, i32, ptr, %"struct.std::ios_base::_Words", [8 x %"struct.std::ios_base::_Words"], i32, ptr, %"class.std::locale" }
%"struct.std::ios_base::_Words" = type { ptr, i64 }
%"class.std::locale" = type { ptr }
%"class.std::vector.97" = type { %"struct.std::_Bvector_base" }
%"struct.std::_Bvector_base" = type { %"struct.std::_Bvector_base<std::allocator<bool>>::_Bvector_impl" }
%"struct.std::_Bvector_base<std::allocator<bool>>::_Bvector_impl" = type { %"struct.std::_Bvector_base<std::allocator<bool>>::_Bvector_impl_data" }
%"struct.std::_Bvector_base<std::allocator<bool>>::_Bvector_impl_data" = type { %"struct.std::_Bit_iterator", %"struct.std::_Bit_iterator", ptr }
%"struct.std::_Bit_iterator" = type { %"struct.std::_Bit_iterator_base.base", [4 x i8] }
%"struct.std::_Bit_iterator_base.base" = type <{ ptr, i32 }>
%"class.std::bitset" = type { %"struct.std::_Base_bitset" }
%"struct.std::_Base_bitset" = type { [3 x i64] }
%"class.std::unordered_map.101" = type { %"class.std::_Hashtable.102" }
%"class.std::_Hashtable.102" = type { ptr, i64, %"struct.std::__detail::_Hash_node_base", i64, %"struct.std::__detail::_Prime_rehash_policy", ptr }
%class.opcode_cache_entry_t = type { [4 x i64], [4 x ptr] }
%class.entropy_source = type { %"class.std::__cxx11::basic_string" }
%class.vectorUnit_t = type <{ ptr, ptr, [32 x i8], i32, [4 x i8], i64, i64, %"class.std::shared_ptr.45", %"class.std::shared_ptr.115", %"class.std::shared_ptr.115", %"class.std::shared_ptr.115", %"class.std::shared_ptr.115", i64, i64, i64, float, [4 x i8], i64, i64, i8, i8, [6 x i8] }>
%"class.std::shared_ptr.115" = type { %"class.std::__shared_ptr.116" }
%"class.std::__shared_ptr.116" = type { ptr, %"class.std::__shared_count" }
%"class.triggers::module_t" = type { ptr, %"class.std::vector.118" }
%"class.std::vector.118" = type { %"struct.std::_Vector_base.119" }
%"struct.std::_Vector_base.119" = type { %"struct.std::_Vector_base<triggers::trigger_t *, std::allocator<triggers::trigger_t *>>::_Vector_impl" }
%"struct.std::_Vector_base<triggers::trigger_t *, std::allocator<triggers::trigger_t *>>::_Vector_impl" = type { %"struct.std::_Vector_base<triggers::trigger_t *, std::allocator<triggers::trigger_t *>>::_Vector_impl_data" }
%"struct.std::_Vector_base<triggers::trigger_t *, std::allocator<triggers::trigger_t *>>::_Vector_impl_data" = type { ptr, ptr, ptr }

; Function Attrs: mustprogress nounwind uwtable
define linkonce_odr noundef i64 @_ZN6insn_t1xEii(ptr noundef nonnull align 8 dereferenceable(8) %0, i32 noundef %1, i32 noundef %2) #5 comdat align 2 {
  %4 = alloca ptr, align 8
  %5 = alloca i32, align 4
  %6 = alloca i32, align 4
  store ptr %0, ptr %4, align 8, !tbaa !71
  store i32 %1, ptr %5, align 4, !tbaa !78
  store i32 %2, ptr %6, align 4, !tbaa !78
  %7 = load ptr, ptr %4, align 8
  %8 = getelementptr inbounds nuw %class.insn_t, ptr %7, i32 0, i32 0
  %9 = load i64, ptr %8, align 8, !tbaa !80
  %10 = load i32, ptr %5, align 4, !tbaa !78
  %11 = zext i32 %10 to i64
  %12 = lshr i64 %9, %11
  %13 = load i32, ptr %6, align 4, !tbaa !78
  %14 = zext i32 %13 to i64
  %15 = shl i64 1, %14
  %16 = sub i64 %15, 1
  %17 = and i64 %12, %16
  ret i64 %17
}

; Function Attrs: mustprogress nounwind uwtable
define linkonce_odr void @_ZN9regfile_tImLm32ELb1EE5writeEmm(ptr noundef nonnull align 8 dereferenceable(256) %0, i64 noundef %1, i64 noundef %2) #5 comdat align 2 {
  %4 = alloca ptr, align 8
  %5 = alloca i64, align 8
  %6 = alloca i64, align 8
  store ptr %0, ptr %4, align 8, !tbaa !69
  store i64 %1, ptr %5, align 8, !tbaa !8
  store i64 %2, ptr %6, align 8, !tbaa !8
  %7 = load ptr, ptr %4, align 8
  %8 = load i64, ptr %5, align 8, !tbaa !8
  %9 = icmp ne i64 %8, 0
  br i1 %9, label %10, label %15

10:                                               ; preds = %3
  %11 = load i64, ptr %6, align 8, !tbaa !8
  %12 = getelementptr inbounds nuw %class.regfile_t, ptr %7, i32 0, i32 0
  %13 = load i64, ptr %5, align 8, !tbaa !8
  %14 = getelementptr inbounds nuw [32 x i64], ptr %12, i64 0, i64 %13
  store i64 %11, ptr %14, align 8, !tbaa !8
  br label %15

15:                                               ; preds = %10, %3
  ret void
}

; Function Attrs: mustprogress nounwind uwtable
define linkonce_odr noundef i64 @_ZN6insn_t2rdEv(ptr noundef nonnull align 8 dereferenceable(8) %0) #5 comdat align 2 {
  %2 = alloca ptr, align 8
  store ptr %0, ptr %2, align 8, !tbaa !71
  %3 = load ptr, ptr %2, align 8
  %4 = call noundef i64 @_ZN6insn_t1xEii(ptr noundef nonnull align 8 dereferenceable(8) %3, i32 noundef 7, i32 noundef 5)
  ret i64 %4
}

; Function Attrs: mustprogress nounwind uwtable
define linkonce_odr noundef i64 @_ZN6insn_t3rs2Ev(ptr noundef nonnull align 8 dereferenceable(8) %0) #5 comdat align 2 {
  %2 = alloca ptr, align 8
  store ptr %0, ptr %2, align 8, !tbaa !71
  %3 = load ptr, ptr %2, align 8
  %4 = call noundef i64 @_ZN6insn_t1xEii(ptr noundef nonnull align 8 dereferenceable(8) %3, i32 noundef 20, i32 noundef 5)
  ret i64 %4
}

; Function Attrs: mustprogress nounwind uwtable
define linkonce_odr noundef nonnull align 8 dereferenceable(8) ptr @_ZNK9regfile_tImLm32ELb1EEixEm(ptr noundef nonnull align 8 dereferenceable(256) %0, i64 noundef %1) #5 comdat align 2 {
  %3 = alloca ptr, align 8
  %4 = alloca i64, align 8
  store ptr %0, ptr %3, align 8, !tbaa !69
  store i64 %1, ptr %4, align 8, !tbaa !8
  %5 = load ptr, ptr %3, align 8
  %6 = getelementptr inbounds nuw %class.regfile_t, ptr %5, i32 0, i32 0
  %7 = load i64, ptr %4, align 8, !tbaa !8
  %8 = getelementptr inbounds nuw [32 x i64], ptr %6, i64 0, i64 %7
  ret ptr %8
}

; Function Attrs: mustprogress uwtable
define linkonce_odr noundef i64 @_ZN6insn_t3rs1Ev(ptr noundef nonnull align 8 dereferenceable(8) %0) #4 comdat align 2 {
  %2 = alloca ptr, align 8
  store ptr %0, ptr %2, align 8, !tbaa !71
  %3 = load ptr, ptr %2, align 8
  %4 = call noundef i64 @_ZN6insn_t1xEii(ptr noundef nonnull align 8 dereferenceable(8) %3, i32 noundef 15, i32 noundef 5)
  ret i64 %4
}

; Function Attrs: mustprogress nounwind uwtable
define linkonce_odr noundef ptr @_ZN11processor_t9get_stateEv(ptr noundef nonnull align 8 dereferenceable(266872) %0) #5 comdat align 2 {
  %2 = alloca ptr, align 8
  store ptr %0, ptr %2, align 8, !tbaa !25
  %3 = load ptr, ptr %2, align 8
  %4 = getelementptr inbounds nuw %class.processor_t, ptr %3, i32 0, i32 9
  ret ptr %4
}

; Function Attrs: mustprogress uwtable
define internal noundef i64 @_ZL2c0P11processor_t6insn_tm(ptr noundef %0, i64 %1, i64 noundef %2) #4 {
  %4 = alloca %class.insn_t, align 8
  %5 = alloca ptr, align 8
  %6 = alloca i64, align 8
  %7 = alloca ptr, align 8
  %8 = alloca %union.rocc_insn_union_t, align 8
  %9 = alloca i64, align 8
  %10 = alloca i64, align 8
  %11 = alloca i64, align 8
  %12 = alloca %struct.rocc_insn_t, align 4
  %13 = alloca i64, align 8
  %14 = alloca %struct.float128_t, align 8
  %15 = alloca i64, align 8
  %16 = getelementptr inbounds nuw %class.insn_t, ptr %4, i32 0, i32 0
  store i64 %1, ptr %16, align 8
  store ptr %0, ptr %5, align 8, !tbaa !25
  store i64 %2, ptr %6, align 8, !tbaa !8
  call void @llvm.lifetime.start.p0(i64 8, ptr %7) #3
  %17 = load ptr, ptr %5, align 8, !tbaa !25
  %18 = call noundef ptr @_ZN11processor_t13get_extensionEv(ptr noundef nonnull align 8 dereferenceable(266872) %17)
  store ptr %18, ptr %7, align 8, !tbaa !3
  call void @llvm.lifetime.start.p0(i64 8, ptr %8) #3
  call void @llvm.memcpy.p0.p0.i64(ptr align 8 %8, ptr align 8 %4, i64 8, i1 false), !tbaa.struct !27
  call void @llvm.lifetime.start.p0(i64 8, ptr %9) #3
  %19 = load i32, ptr %8, align 8
  %20 = lshr i32 %19, 13
  %21 = and i32 %20, 1
  %22 = icmp ne i32 %21, 0
  br i1 %22, label %23, label %30

23:                                               ; preds = %3
  %24 = load ptr, ptr %5, align 8, !tbaa !25
  %25 = call noundef ptr @_ZN11processor_t9get_stateEv(ptr noundef nonnull align 8 dereferenceable(266872) %24)
  %26 = getelementptr inbounds nuw %struct.state_t, ptr %25, i32 0, i32 1
  %27 = call noundef i64 @_ZN6insn_t3rs1Ev(ptr noundef nonnull align 8 dereferenceable(8) %4)
  %28 = call noundef nonnull align 8 dereferenceable(8) ptr @_ZNK9regfile_tImLm32ELb1EEixEm(ptr noundef nonnull align 8 dereferenceable(256) %26, i64 noundef %27)
  %29 = load i64, ptr %28, align 8, !tbaa !8
  br label %31

30:                                               ; preds = %3
  br label %31

31:                                               ; preds = %30, %23
  %32 = phi i64 [ %29, %23 ], [ -1, %30 ]
  store i64 %32, ptr %9, align 8, !tbaa !8
  call void @llvm.lifetime.start.p0(i64 8, ptr %10) #3
  %33 = load i32, ptr %8, align 8
  %34 = lshr i32 %33, 12
  %35 = and i32 %34, 1
  %36 = icmp ne i32 %35, 0
  br i1 %36, label %37, label %44

37:                                               ; preds = %31
  %38 = load ptr, ptr %5, align 8, !tbaa !25
  %39 = call noundef ptr @_ZN11processor_t9get_stateEv(ptr noundef nonnull align 8 dereferenceable(266872) %38)
  %40 = getelementptr inbounds nuw %struct.state_t, ptr %39, i32 0, i32 1
  %41 = call noundef i64 @_ZN6insn_t3rs2Ev(ptr noundef nonnull align 8 dereferenceable(8) %4)
  %42 = call noundef nonnull align 8 dereferenceable(8) ptr @_ZNK9regfile_tImLm32ELb1EEixEm(ptr noundef nonnull align 8 dereferenceable(256) %40, i64 noundef %41)
  %43 = load i64, ptr %42, align 8, !tbaa !8
  br label %45

44:                                               ; preds = %31
  br label %45

45:                                               ; preds = %44, %37
  %46 = phi i64 [ %43, %37 ], [ -1, %44 ]
  store i64 %46, ptr %10, align 8, !tbaa !8
  call void @llvm.lifetime.start.p0(i64 8, ptr %11) #3
  %47 = load ptr, ptr %7, align 8, !tbaa !3
  call void @llvm.memcpy.p0.p0.i64(ptr align 4 %12, ptr align 8 %8, i64 4, i1 false), !tbaa.struct !28
  %48 = load i64, ptr %9, align 8, !tbaa !8
  %49 = load i64, ptr %10, align 8, !tbaa !8
  %50 = getelementptr inbounds nuw %struct.rocc_insn_t, ptr %12, i32 0, i32 0
  %51 = load i32, ptr %50, align 4
  %52 = load ptr, ptr %47, align 8, !tbaa !30
  %53 = getelementptr inbounds ptr, ptr %52, i64 8
  %54 = load ptr, ptr %53, align 8
  %55 = call noundef i64 %54(ptr noundef nonnull align 8 dereferenceable(16) %47, i32 %51, i64 noundef %48, i64 noundef %49)
  store i64 %55, ptr %11, align 8, !tbaa !8
  %56 = load i32, ptr %8, align 8
  %57 = lshr i32 %56, 14
  %58 = and i32 %57, 1
  %59 = icmp ne i32 %58, 0
  br i1 %59, label %60, label %76

60:                                               ; preds = %45
  call void @llvm.lifetime.start.p0(i64 8, ptr %13) #3
  %61 = load i64, ptr %11, align 8, !tbaa !8
  store i64 %61, ptr %13, align 8, !tbaa !8
  call void @llvm.lifetime.start.p0(i64 16, ptr %14) #3
  %62 = getelementptr inbounds nuw %struct.float128_t, ptr %14, i32 0, i32 0
  %63 = load i64, ptr %13, align 8, !tbaa !8
  store i64 %63, ptr %62, align 8, !tbaa !8
  %64 = getelementptr inbounds i64, ptr %62, i64 1
  store i64 0, ptr %64, align 8, !tbaa !8
  %65 = load ptr, ptr %5, align 8, !tbaa !25
  %66 = call noundef ptr @_ZN11processor_t9get_stateEv(ptr noundef nonnull align 8 dereferenceable(266872) %65)
  %67 = getelementptr inbounds nuw %struct.state_t, ptr %66, i32 0, i32 86
  call void @llvm.lifetime.start.p0(i64 8, ptr %15) #3
  %68 = call noundef i64 @_ZN6insn_t2rdEv(ptr noundef nonnull align 8 dereferenceable(8) %4)
  %69 = shl i64 %68, 4
  store i64 %69, ptr %15, align 8, !tbaa !8
  %70 = call noundef nonnull align 8 dereferenceable(16) ptr @_ZNSt3mapIm10float128_tSt4lessImESaISt4pairIKmS0_EEEixEOm(ptr noundef nonnull align 8 dereferenceable(48) %67, ptr noundef nonnull align 8 dereferenceable(8) %15)
  call void @llvm.memcpy.p0.p0.i64(ptr align 8 %70, ptr align 8 %14, i64 16, i1 false), !tbaa.struct !32
  call void @llvm.lifetime.end.p0(i64 8, ptr %15) #3
  call void @llvm.lifetime.end.p0(i64 16, ptr %14) #3
  %71 = load ptr, ptr %5, align 8, !tbaa !25
  %72 = call noundef ptr @_ZN11processor_t9get_stateEv(ptr noundef nonnull align 8 dereferenceable(266872) %71)
  %73 = getelementptr inbounds nuw %struct.state_t, ptr %72, i32 0, i32 1
  %74 = call noundef i64 @_ZN6insn_t2rdEv(ptr noundef nonnull align 8 dereferenceable(8) %4)
  %75 = load i64, ptr %13, align 8, !tbaa !8
  call void @_ZN9regfile_tImLm32ELb1EE5writeEmm(ptr noundef nonnull align 8 dereferenceable(256) %73, i64 noundef %74, i64 noundef %75)
  call void @llvm.lifetime.end.p0(i64 8, ptr %13) #3
  br label %76

76:                                               ; preds = %60, %45
  %77 = load i64, ptr %6, align 8, !tbaa !8
  %78 = add i64 %77, 4
  call void @llvm.lifetime.end.p0(i64 8, ptr %11) #3
  call void @llvm.lifetime.end.p0(i64 8, ptr %10) #3
  call void @llvm.lifetime.end.p0(i64 8, ptr %9) #3
  call void @llvm.lifetime.end.p0(i64 8, ptr %8) #3
  call void @llvm.lifetime.end.p0(i64 8, ptr %7) #3
  ret i64 %78
}